; Function Attrs: mustprogress nofree nounwind willreturn memory(readwrite, inaccessiblemem: write) uwtable
define dso_local void @force(ptr noundef readonly captures(none) %0, ptr noundef writeonly captures(none) initializes((0, 24)) %1, ptr noundef readonly captures(none) %2) local_unnamed_addr #7 {
  %4 = load double, ptr %2, align 8, !tbaa !9
  %5 = getelementptr inbounds nuw i8, ptr %2, i64 32
  %6 = load double, ptr %5, align 8, !tbaa !15
  %7 = getelementptr inbounds nuw i8, ptr %2, i64 40
  %8 = load double, ptr %7, align 8, !tbaa !16
  %9 = getelementptr inbounds nuw i8, ptr %2, i64 48
  %10 = load double, ptr %9, align 8, !tbaa !17
  %11 = getelementptr inbounds nuw i8, ptr %2, i64 56
  %12 = load double, ptr %11, align 8, !tbaa !18
  %13 = load ptr, ptr %0, align 8, !tbaa !21
  %14 = getelementptr inbounds nuw i8, ptr %13, i64 16
  %15 = load ptr, ptr %14, align 8, !tbaa !24
  %16 = load double, ptr %15, align 8, !tbaa !30
  %17 = getelementptr inbounds nuw i8, ptr %15, i64 8
  %18 = load double, ptr %17, align 8, !tbaa !30
  %19 = getelementptr inbounds nuw i8, ptr %15, i64 16
  %20 = load double, ptr %19, align 8, !tbaa !30
  %21 = getelementptr inbounds nuw i8, ptr %15, i64 24
  %22 = load double, ptr %21, align 8, !tbaa !30
  %23 = getelementptr inbounds nuw i8, ptr %15, i64 32
  %24 = load double, ptr %23, align 8, !tbaa !30
  %25 = getelementptr inbounds nuw i8, ptr %15, i64 40
  %26 = load double, ptr %25, align 8, !tbaa !30
  %27 = tail call double @sin(double noundef %16) #12, !tbaa !32
  %28 = tail call double @cos(double noundef %16) #12, !tbaa !32
  %29 = tail call double @sin(double noundef %20) #12, !tbaa !32
  %30 = tail call double @cos(double noundef %20) #12, !tbaa !32
  %31 = fneg double %27
  %32 = fmul double %30, %31
  %33 = tail call double @llvm.fmuladd.f64(double %29, double %28, double %32)
  %34 = fmul double %27, %29
  %35 = tail call double @llvm.fmuladd.f64(double %30, double %28, double %34)
  %36 = tail call double @llvm.fmuladd.f64(double %4, double %28, double %30)
  %37 = fneg double %36
  %38 = fmul double %18, %37
  %39 = tail call double @llvm.fmuladd.f64(double %18, double %18, double %38)
  %40 = tail call double @llvm.fmuladd.f64(double %4, double %4, double 1.000000e+00)
  %41 = fmul double %40, 2.500000e-01
  %42 = fadd double %41, %39
  %43 = fmul double %4, %35
  %44 = fmul double %43, 5.000000e-01
  %45 = fadd double %44, %42
  %46 = tail call double @sqrt(double noundef %45) #12, !tbaa !32
  %47 = fmul double %18, 2.000000e+00
  %48 = fmul double %24, %37
  %49 = tail call double @llvm.fmuladd.f64(double %47, double %24, double %48)
  %50 = fmul double %4, %27
  %51 = fmul double %22, %50
  %52 = tail call double @llvm.fmuladd.f64(double %29, double %26, double %51)
  %53 = tail call double @llvm.fmuladd.f64(double %18, double %52, double %49)
  %54 = fmul double %4, %33
  %55 = fsub double %26, %22
  %56 = fmul double %55, %54
  %57 = fmul double %56, 5.000000e-01
  %58 = fsub double %53, %57
  %59 = fmul double %46, 2.000000e+00
  %60 = fdiv double %58, %59
  %61 = fsub double %46, %10
  %62 = fmul double %8, %60
  %63 = tail call double @llvm.fmuladd.f64(double %6, double %61, double %62)
  %64 = fdiv double %63, %46
  %65 = fneg double %64
  %66 = fmul double %4, %65
  %67 = fmul double %33, 5.000000e-01
  %68 = tail call double @llvm.fmuladd.f64(double %18, double %27, double %67)
  %69 = fmul double %68, %66
  %70 = fmul double %69, 5.000000e-01
  store double %70, ptr %1, align 8, !tbaa !30
  %71 = fmul double %30, 5.000000e-01
  %72 = fsub double %71, %18
  %73 = fmul double %4, %28
  %74 = fmul double %73, 5.000000e-01
  %75 = fadd double %74, %72
  %76 = tail call double @llvm.fmuladd.f64(double %64, double %75, double %12)
  %77 = getelementptr inbounds nuw i8, ptr %1, i64 8
  store double %76, ptr %77, align 8, !tbaa !30
  %78 = fmul double %54, -5.000000e-01
  %79 = tail call double @llvm.fmuladd.f64(double %18, double %29, double %78)
  %80 = fmul double %79, %65
  %81 = fmul double %80, 5.000000e-01
  %82 = fneg double %12
  %83 = tail call double @llvm.fmuladd.f64(double %82, double %29, double %81)
  %84 = getelementptr inbounds nuw i8, ptr %1, i64 16
  store double %83, ptr %84, align 8, !tbaa !30
  ret void
}